target datalayout = "e-m:e-p270:32:32-p271:32:32-p272:64:64-i64:64-i128:128-f80:128-n8:16:32:64-S128"
target triple = "x86_64-pc-linux-gnu"

%struct.lzma_check_state = type { %union.anon, %union.anon.0 }
%union.anon = type { [8 x i64] }
%union.anon.0 = type { %struct.lzma_sha256_state }
%struct.lzma_sha256_state = type { [8 x i32], i64 }

; Function Attrs: nounwind uwtable
define dso_local void @lzma_sha256_update(ptr noundef %0, i64 noundef %1, ptr noundef %2) #0 {
  %4 = alloca ptr, align 8
  %5 = alloca i64, align 8
  %6 = alloca ptr, align 8
  %7 = alloca i64, align 8
  %8 = alloca i64, align 8
  store ptr %0, ptr %4, align 8
  store i64 %1, ptr %5, align 8
  store ptr %2, ptr %6, align 8
  br label %9

9:                                                ; preds = %53, %3
  %10 = load i64, ptr %5, align 8
  %11 = icmp ugt i64 %10, 0
  br i1 %11, label %12, label %54

12:                                               ; preds = %9
  %13 = load ptr, ptr %6, align 8
  %14 = getelementptr inbounds %struct.lzma_check_state, ptr %13, i32 0, i32 1
  %15 = getelementptr inbounds %struct.lzma_sha256_state, ptr %14, i32 0, i32 1
  %16 = load i64, ptr %15, align 8
  %17 = and i64 %16, 63
  store i64 %17, ptr %7, align 8
  %18 = load i64, ptr %7, align 8
  %19 = sub i64 64, %18
  store i64 %19, ptr %8, align 8
  %20 = load i64, ptr %8, align 8
  %21 = load i64, ptr %5, align 8
  %22 = icmp ugt i64 %20, %21
  br i1 %22, label %23, label %25

23:                                               ; preds = %12
  %24 = load i64, ptr %5, align 8
  store i64 %24, ptr %8, align 8
  br label %25

25:                                               ; preds = %23, %12
  %26 = load ptr, ptr %6, align 8
  %27 = getelementptr inbounds %struct.lzma_check_state, ptr %26, i32 0, i32 0
  %28 = getelementptr inbounds [64 x i8], ptr %27, i64 0, i64 0
  %29 = load i64, ptr %7, align 8
  %30 = getelementptr inbounds i8, ptr %28, i64 %29
  %31 = load ptr, ptr %4, align 8
  %32 = load i64, ptr %8, align 8
  call void @llvm.memcpy.p0.p0.i64(ptr align 1 %30, ptr align 1 %31, i64 %32, i1 false)
  %33 = load i64, ptr %8, align 8
  %34 = load ptr, ptr %4, align 8
  %35 = getelementptr inbounds i8, ptr %34, i64 %33
  store ptr %35, ptr %4, align 8
  %36 = load i64, ptr %8, align 8
  %37 = load i64, ptr %5, align 8
  %38 = sub i64 %37, %36
  store i64 %38, ptr %5, align 8
  %39 = load i64, ptr %8, align 8
  %40 = load ptr, ptr %6, align 8
  %41 = getelementptr inbounds %struct.lzma_check_state, ptr %40, i32 0, i32 1
  %42 = getelementptr inbounds %struct.lzma_sha256_state, ptr %41, i32 0, i32 1
  %43 = load i64, ptr %42, align 8
  %44 = add i64 %43, %39
  store i64 %44, ptr %42, align 8
  %45 = load ptr, ptr %6, align 8
  %46 = getelementptr inbounds %struct.lzma_check_state, ptr %45, i32 0, i32 1
  %47 = getelementptr inbounds %struct.lzma_sha256_state, ptr %46, i32 0, i32 1
  %48 = load i64, ptr %47, align 8
  %49 = and i64 %48, 63
  %50 = icmp eq i64 %49, 0
  br i1 %50, label %51, label %53

51:                                               ; preds = %25
  %52 = load ptr, ptr %6, align 8
  call void @process(ptr noundef %52)
  br label %53

53:                                               ; preds = %51, %25
  br label %9, !llvm.loop !5

54:                                               ; preds = %9
  ret void
}