; Function Attrs: nofree norecurse nosync nounwind memory(argmem: readwrite) uwtable
define dso_local void @lzma_sha256_update(ptr noundef readonly captures(none) %0, i64 noundef %1, ptr noundef captures(none) %2) local_unnamed_addr #2 {
  %.not20 = icmp eq i64 %1, 0
  br i1 %.not20, label %._crit_edge, label %.lr.ph

.lr.ph:                                           ; preds = %3
  %4 = getelementptr inbounds nuw i8, ptr %2, i64 96
  br label %5

5:                                                ; preds = %.lr.ph, %17
  %.01722 = phi ptr [ %0, %.lr.ph ], [ %10, %17 ]
  %.01821 = phi i64 [ %1, %.lr.ph ], [ %11, %17 ]
  %6 = load i64, ptr %4, align 8
  %7 = and i64 %6, 63
  %8 = sub nuw nsw i64 64, %7
  %spec.select = tail call i64 @llvm.umin.i64(i64 %8, i64 %.01821)
  %9 = getelementptr inbounds nuw i8, ptr %2, i64 %7
  tail call void @llvm.memcpy.p0.p0.i64(ptr align 1 %9, ptr align 1 %.01722, i64 %spec.select, i1 false)
  %10 = getelementptr inbounds nuw i8, ptr %.01722, i64 %spec.select
  %11 = sub i64 %.01821, %spec.select
  %12 = load i64, ptr %4, align 8
  %13 = add i64 %spec.select, %12
  store i64 %13, ptr %4, align 8
  %14 = and i64 %13, 63
  %15 = icmp eq i64 %14, 0
  br i1 %15, label %16, label %17

16:                                               ; preds = %5
  tail call fastcc void @process(ptr noundef nonnull %2)
  br label %17

17:                                               ; preds = %16, %5
  %.not = icmp eq i64 %11, 0
  br i1 %.not, label %._crit_edge, label %5, !llvm.loop !5

._crit_edge:                                      ; preds = %17, %3
  ret void
}